target datalayout = "e-m:e-p270:32:32-p271:32:32-p272:64:64-i64:64-i128:128-f80:128-n8:16:32:64-S128"
target triple = "x86_64-pc-linux-gnu"

%class.LogTagSet = type { ptr, i64, [5 x i32], [4 x i8], %class.LogOutputList, %class.LogDecorators, ptr }
%class.LogOutputList = type <{ [6 x ptr], i32, [4 x i8] }>
%class.LogDecorators = type { i32 }
%class.ThreadCritical = type { i8 }

@.str.73 = private unnamed_addr constant [47 x i8] c"Uncommitted [0x%016lx - 0x%016lx), (%lu bytes)\00", align 1
@.str.74 = private unnamed_addr constant [54 x i8] c"Failed to uncommit [0x%016lx - 0x%016lx), (%lu bytes)\00", align 1
@_ZN16LogTagSetMappingILN6LogTag4typeE105ELS1_78ELS1_0ELS1_0ELS1_0ELS1_0EE7_tagsetE = linkonce_odr hidden global %class.LogTagSet zeroinitializer, comdat, align 8
@_ZN10MemTracker15_tracking_levelE = external global i32, align 4

; Function Attrs: mustprogress nounwind uwtable
define linkonce_odr hidden noundef zeroext i1 @_ZNK13LogOutputList8is_levelEN8LogLevel4typeE(ptr noundef nonnull align 8 dereferenceable(52) %0, i32 noundef %1) #1 comdat align 2 {
  %3 = alloca ptr, align 8
  %4 = alloca i32, align 4
  store ptr %0, ptr %3, align 8
  store i32 %1, ptr %4, align 4
  %5 = load ptr, ptr %3, align 8
  %6 = getelementptr inbounds %class.LogOutputList, ptr %5, i32 0, i32 0
  %7 = load i32, ptr %4, align 4
  %8 = zext i32 %7 to i64
  %9 = getelementptr inbounds [6 x ptr], ptr %6, i64 0, i64 %8
  %10 = load volatile ptr, ptr %9, align 8
  %11 = icmp ne ptr %10, null
  ret i1 %11
}

; Function Attrs: mustprogress nounwind uwtable
define linkonce_odr hidden noundef zeroext i1 @_ZNK9LogTagSet8is_levelEN8LogLevel4typeE(ptr noundef nonnull align 8 dereferenceable(112) %0, i32 noundef %1) #1 comdat align 2 {
  %3 = alloca ptr, align 8
  %4 = alloca i32, align 4
  store ptr %0, ptr %3, align 8
  store i32 %1, ptr %4, align 4
  %5 = load ptr, ptr %3, align 8
  %6 = getelementptr inbounds %class.LogTagSet, ptr %5, i32 0, i32 4
  %7 = load i32, ptr %4, align 4
  %8 = call noundef zeroext i1 @_ZNK13LogOutputList8is_levelEN8LogLevel4typeE(ptr noundef nonnull align 8 dereferenceable(52) %6, i32 noundef %7)
  ret i1 %8
}

; Function Attrs: mustprogress nounwind uwtable
define linkonce_odr hidden noundef nonnull align 8 dereferenceable(112) ptr @_ZN16LogTagSetMappingILN6LogTag4typeE105ELS1_78ELS1_0ELS1_0ELS1_0ELS1_0EE6tagsetEv() #1 comdat align 2 {
  ret ptr @_ZN16LogTagSetMappingILN6LogTag4typeE105ELS1_78ELS1_0ELS1_0ELS1_0ELS1_0EE7_tagsetE
}

; Function Attrs: mustprogress nounwind uwtable
define linkonce_odr hidden void @_ZN10MemTracker16assert_post_initEv() #1 comdat align 2 {
  ret void
}

; Function Attrs: mustprogress nounwind uwtable
define linkonce_odr hidden noundef i64 @_Z3p2iPVKv(ptr noundef %0) #1 comdat {
  %2 = alloca ptr, align 8
  store ptr %0, ptr %2, align 8
  %3 = load ptr, ptr %2, align 8
  %4 = ptrtoint ptr %3 to i64
  ret i64 %4
}

; Function Attrs: mustprogress nounwind uwtable
define linkonce_odr hidden noundef zeroext i1 @_ZN7LogImplILN6LogTag4typeE105ELS1_78ELS1_0ELS1_0ELS1_0ELS1_0EE8is_levelEN8LogLevel4typeE(i32 noundef %0) #1 comdat align 2 {
  %2 = alloca i32, align 4
  store i32 %0, ptr %2, align 4
  %3 = call noundef nonnull align 8 dereferenceable(112) ptr @_ZN16LogTagSetMappingILN6LogTag4typeE105ELS1_78ELS1_0ELS1_0ELS1_0ELS1_0EE6tagsetEv()
  %4 = load i32, ptr %2, align 4
  %5 = call noundef zeroext i1 @_ZNK9LogTagSet8is_levelEN8LogLevel4typeE(ptr noundef nonnull align 8 dereferenceable(112) %3, i32 noundef %4)
  ret i1 %5
}

; Function Attrs: mustprogress nounwind uwtable
define linkonce_odr hidden void @_ZN10MemTracker30record_virtual_memory_uncommitEPhm(ptr noundef %0, i64 noundef %1) #1 comdat align 2 {
  %3 = alloca ptr, align 8
  %4 = alloca i64, align 8
  store ptr %0, ptr %3, align 8
  store i64 %1, ptr %4, align 8
  call void @_ZN10MemTracker16assert_post_initEv()
  %5 = call noundef zeroext i1 @_ZN10MemTracker7enabledEv()
  br i1 %5, label %7, label %6

6:                                                ; preds = %2
  br label %14

7:                                                ; preds = %2
  %8 = load ptr, ptr %3, align 8
  %9 = icmp ne ptr %8, null
  br i1 %9, label %10, label %14

10:                                               ; preds = %7
  %11 = load ptr, ptr %3, align 8
  %12 = load i64, ptr %4, align 8
  %13 = call noundef zeroext i1 @_ZN20VirtualMemoryTracker25remove_uncommitted_regionEPhm(ptr noundef %11, i64 noundef %12)
  br label %14

14:                                               ; preds = %10, %7, %6
  ret void
}

; Function Attrs: mustprogress nounwind uwtable
define linkonce_odr hidden noundef zeroext i1 @_ZN10MemTracker7enabledEv() #1 comdat align 2 {
  %1 = load i32, ptr @_ZN10MemTracker15_tracking_levelE, align 4
  %2 = icmp sgt i32 %1, 1
  ret i1 %2
}

; Function Attrs: mustprogress nounwind uwtable
define internal void @_ZL21assert_nonempty_rangePKcm(ptr noundef %0, i64 noundef %1) #1 {
  %3 = alloca ptr, align 8
  %4 = alloca i64, align 8
  store ptr %0, ptr %3, align 8
  store i64 %1, ptr %4, align 8
  ret void
}

; Function Attrs: mustprogress nounwind uwtable
define hidden noundef zeroext i1 @_ZN2os15uncommit_memoryEPcmb(ptr noundef %0, i64 noundef %1, i1 noundef zeroext %2) #1 align 2 {
  %4 = alloca ptr, align 8
  %5 = alloca i64, align 8
  %6 = alloca i8, align 1
  %7 = alloca i8, align 1
  %8 = alloca %class.ThreadCritical, align 1
  store ptr %0, ptr %4, align 8
  store i64 %1, ptr %5, align 8
  %9 = zext i1 %2 to i8
  store i8 %9, ptr %6, align 1
  %10 = load ptr, ptr %4, align 8
  %11 = load i64, ptr %5, align 8
  call void @_ZL21assert_nonempty_rangePKcm(ptr noundef %10, i64 noundef %11)
  %12 = call noundef zeroext i1 @_ZN10MemTracker7enabledEv()
  br i1 %12, label %13, label %26

13:                                               ; preds = %3
  call void @_ZN14ThreadCriticalC1Ev(ptr noundef nonnull align 1 dereferenceable(1) %8)
  %14 = load ptr, ptr %4, align 8
  %15 = load i64, ptr %5, align 8
  %16 = load i8, ptr %6, align 1
  %17 = trunc i8 %16 to i1
  %18 = call noundef zeroext i1 @_ZN2os18pd_uncommit_memoryEPcmb(ptr noundef %14, i64 noundef %15, i1 noundef zeroext %17)
  %19 = zext i1 %18 to i8
  store i8 %19, ptr %7, align 1
  %20 = load i8, ptr %7, align 1
  %21 = trunc i8 %20 to i1
  br i1 %21, label %22, label %25

22:                                               ; preds = %13
  %23 = load ptr, ptr %4, align 8
  %24 = load i64, ptr %5, align 8
  call void @_ZN10MemTracker30record_virtual_memory_uncommitEPhm(ptr noundef %23, i64 noundef %24)
  br label %25

25:                                               ; preds = %22, %13
  call void @_ZN14ThreadCriticalD1Ev(ptr noundef nonnull align 1 dereferenceable(1) %8) #13
  br label %33

26:                                               ; preds = %3
  %27 = load ptr, ptr %4, align 8
  %28 = load i64, ptr %5, align 8
  %29 = load i8, ptr %6, align 1
  %30 = trunc i8 %29 to i1
  %31 = call noundef zeroext i1 @_ZN2os18pd_uncommit_memoryEPcmb(ptr noundef %27, i64 noundef %28, i1 noundef zeroext %30)
  %32 = zext i1 %31 to i8
  store i8 %32, ptr %7, align 1
  br label %33

33:                                               ; preds = %26, %25
  %34 = load i8, ptr %7, align 1
  %35 = trunc i8 %34 to i1
  br i1 %35, label %36, label %48

36:                                               ; preds = %33
  %37 = call noundef zeroext i1 @_ZN7LogImplILN6LogTag4typeE105ELS1_78ELS1_0ELS1_0ELS1_0ELS1_0EE8is_levelEN8LogLevel4typeE(i32 noundef 2)
  br i1 %37, label %39, label %38

38:                                               ; preds = %36
  br label %47

39:                                               ; preds = %36
  %40 = load ptr, ptr %4, align 8
  %41 = call noundef i64 @_Z3p2iPVKv(ptr noundef %40)
  %42 = load ptr, ptr %4, align 8
  %43 = load i64, ptr %5, align 8
  %44 = getelementptr inbounds i8, ptr %42, i64 %43
  %45 = call noundef i64 @_Z3p2iPVKv(ptr noundef %44)
  %46 = load i64, ptr %5, align 8
  call void (ptr, ...) @_ZN7LogImplILN6LogTag4typeE105ELS1_78ELS1_0ELS1_0ELS1_0ELS1_0EE5writeILN8LogLevel4typeE2EEEvPKcz(ptr noundef @.str.73, i64 noundef %41, i64 noundef %45, i64 noundef %46)
  br label %47

47:                                               ; preds = %39, %38
  br label %60

48:                                               ; preds = %33
  %49 = call noundef zeroext i1 @_ZN7LogImplILN6LogTag4typeE105ELS1_78ELS1_0ELS1_0ELS1_0ELS1_0EE8is_levelEN8LogLevel4typeE(i32 noundef 3)
  br i1 %49, label %51, label %50

50:                                               ; preds = %48
  br label %59

51:                                               ; preds = %48
  %52 = load ptr, ptr %4, align 8
  %53 = call noundef i64 @_Z3p2iPVKv(ptr noundef %52)
  %54 = load ptr, ptr %4, align 8
  %55 = load i64, ptr %5, align 8
  %56 = getelementptr inbounds i8, ptr %54, i64 %55
  %57 = call noundef i64 @_Z3p2iPVKv(ptr noundef %56)
  %58 = load i64, ptr %5, align 8
  call void (ptr, ...) @_ZN7LogImplILN6LogTag4typeE105ELS1_78ELS1_0ELS1_0ELS1_0ELS1_0EE5writeILN8LogLevel4typeE3EEEvPKcz(ptr noundef @.str.74, i64 noundef %53, i64 noundef %57, i64 noundef %58)
  br label %59

59:                                               ; preds = %51, %50
  br label %60

60:                                               ; preds = %59, %47
  %61 = load i8, ptr %7, align 1
  %62 = trunc i8 %61 to i1
  ret i1 %62
}