; Function Attrs: mustprogress nounwind uwtable
define hidden noundef zeroext i1 @_ZN2os15uncommit_memoryEPcmb(ptr noundef %0, i64 noundef %1, i1 noundef zeroext %2) local_unnamed_addr #3 align 2 {
  %4 = alloca %class.ThreadCritical, align 1
  %5 = load i32, ptr @_ZN10MemTracker15_tracking_levelE, align 4
  %6 = icmp sgt i32 %5, 1
  br i1 %6, label %7, label %15

7:                                                ; preds = %3
  call void @_ZN14ThreadCriticalC1Ev(ptr noundef nonnull align 1 dereferenceable(1) %4) #28
  %8 = call noundef zeroext i1 @_ZN2os18pd_uncommit_memoryEPcmb(ptr noundef %0, i64 noundef %1, i1 noundef zeroext %2) #28
  br i1 %8, label %9, label %_ZN10MemTracker30record_virtual_memory_uncommitEPhm.exit

9:                                                ; preds = %7
  %10 = load i32, ptr @_ZN10MemTracker15_tracking_levelE, align 4
  %11 = icmp sgt i32 %10, 1
  %12 = icmp ne ptr %0, null
  %or.cond.i = and i1 %12, %11
  br i1 %or.cond.i, label %13, label %_ZN10MemTracker30record_virtual_memory_uncommitEPhm.exit.thread

13:                                               ; preds = %9
  %14 = call noundef zeroext i1 @_ZN20VirtualMemoryTracker25remove_uncommitted_regionEPhm(ptr noundef nonnull %0, i64 noundef %1) #28
  br label %_ZN10MemTracker30record_virtual_memory_uncommitEPhm.exit.thread

_ZN10MemTracker30record_virtual_memory_uncommitEPhm.exit.thread: ; preds = %13, %9
  call void @_ZN14ThreadCriticalD1Ev(ptr noundef nonnull align 1 dereferenceable(1) %4) #28
  br label %17

_ZN10MemTracker30record_virtual_memory_uncommitEPhm.exit: ; preds = %7
  call void @_ZN14ThreadCriticalD1Ev(ptr noundef nonnull align 1 dereferenceable(1) %4) #28
  br label %23

15:                                               ; preds = %3
  %16 = tail call noundef zeroext i1 @_ZN2os18pd_uncommit_memoryEPcmb(ptr noundef %0, i64 noundef %1, i1 noundef zeroext %2) #28
  br i1 %16, label %17, label %23

17:                                               ; preds = %_ZN10MemTracker30record_virtual_memory_uncommitEPhm.exit.thread, %15
  %18 = load volatile ptr, ptr getelementptr inbounds (i8, ptr @_ZN16LogTagSetMappingILN6LogTag4typeE105ELS1_78ELS1_0ELS1_0ELS1_0ELS1_0EE7_tagsetE, i64 56), align 8
  %.not23 = icmp eq ptr %18, null
  br i1 %.not23, label %29, label %19

19:                                               ; preds = %17
  %20 = ptrtoint ptr %0 to i64
  %21 = getelementptr inbounds i8, ptr %0, i64 %1
  %22 = ptrtoint ptr %21 to i64
  call void (ptr, ...) @_ZN7LogImplILN6LogTag4typeE105ELS1_78ELS1_0ELS1_0ELS1_0ELS1_0EE5writeILN8LogLevel4typeE2EEEvPKcz(ptr noundef nonnull @.str.73, i64 noundef %20, i64 noundef %22, i64 noundef %1)
  br label %29

23:                                               ; preds = %_ZN10MemTracker30record_virtual_memory_uncommitEPhm.exit, %15
  %24 = load volatile ptr, ptr getelementptr inbounds (i8, ptr @_ZN16LogTagSetMappingILN6LogTag4typeE105ELS1_78ELS1_0ELS1_0ELS1_0ELS1_0EE7_tagsetE, i64 64), align 8
  %.not = icmp eq ptr %24, null
  br i1 %.not, label %29, label %25

25:                                               ; preds = %23
  %26 = ptrtoint ptr %0 to i64
  %27 = getelementptr inbounds i8, ptr %0, i64 %1
  %28 = ptrtoint ptr %27 to i64
  call void (ptr, ...) @_ZN7LogImplILN6LogTag4typeE105ELS1_78ELS1_0ELS1_0ELS1_0ELS1_0EE5writeILN8LogLevel4typeE3EEEvPKcz(ptr noundef nonnull @.str.74, i64 noundef %26, i64 noundef %28, i64 noundef %1)
  br label %29

29:                                               ; preds = %25, %23, %19, %17
  %.0.in20 = phi i1 [ false, %25 ], [ false, %23 ], [ true, %19 ], [ true, %17 ]
  ret i1 %.0.in20
}